target datalayout = "e-m:e-p270:32:32-p271:32:32-p272:64:64-i64:64-i128:128-f80:128-n8:16:32:64-S128"
target triple = "x86_64-pc-linux-gnu"

%"struct.Gluco2::Lit" = type { i32 }
%"struct.Gluco2::Solver::WatcherDeleted" = type { ptr }
%"struct.Gluco2::Solver::VarOrderLt" = type { ptr }
%"struct.Gluco2::Solver::JustOrderLt2" = type { ptr }
%"class.Gluco2::vec.0" = type { ptr, i32, i32 }
%"class.Gluco2::Solver" = type { ptr, i32, ptr, ptr, i32, i8, ptr, i64, %"class.Gluco2::vec", %"class.Gluco2::vec.0", i32, %"class.Gluco2::vec.1", %"class.Gluco2::vec.0", i32, i32, i32, double, double, double, double, i32, i32, i32, i32, i32, i32, double, double, double, double, i32, i32, i8, i8, double, ptr, i8, i64, i64, i64, i64, i64, i64, i64, i64, i64, i64, i64, i64, i64, i64, i64, i64, i64, i64, i64, i64, i64, i64, i32, i8, double, %"class.Gluco2::vec.2", double, %"class.Gluco2::OccLists", %"class.Gluco2::OccLists", %"class.Gluco2::vec.5", %"class.Gluco2::vec.5", %"class.Gluco2::vec.1", %"class.Gluco2::vec.4", %"class.Gluco2::vec.4", %"class.Gluco2::vec.0", %"class.Gluco2::vec", %"class.Gluco2::vec", %"class.Gluco2::vec.6", i32, i32, i64, %"class.Gluco2::vec.0", %"class.Gluco2::Heap", double, i8, %"class.Gluco2::vec.5", %"class.Gluco2::vec.0", %"class.Gluco2::ClauseAllocator", i32, %"class.Gluco2::bqueue", %"class.Gluco2::bqueue", float, i32, %"class.Gluco2::vec.4", %"class.Gluco2::vec.0", %"class.Gluco2::vec.0", %"class.Gluco2::vec.0", i32, double, double, i32, i64, i64, i8, i32, i32, double, double, i32, i32, %"class.Gluco2::vec", %"class.Gluco2::vec", i8, %"class.Gluco2::vec.7", %"class.Gluco2::vec.5", %"class.Gluco2::vec.0", %"class.Gluco2::vec.0", i32, i32, i32, i32, %"class.Gluco2::Heap2", %"class.Gluco2::vec", %"class.Gluco2::vec", i32, %"class.Gluco2::vec", %"class.Gluco2::vec.0" }
%"class.Gluco2::vec.2" = type { ptr, i32, i32 }
%"class.Gluco2::OccLists" = type { %"class.Gluco2::vec.3", %"class.Gluco2::vec.4", %"class.Gluco2::vec.0", %"struct.Gluco2::Solver::WatcherDeleted" }
%"class.Gluco2::vec.3" = type { ptr, i32, i32 }
%"class.Gluco2::vec.1" = type { ptr, i32, i32 }
%"class.Gluco2::vec.6" = type { ptr, i32, i32 }
%"class.Gluco2::Heap" = type { %"struct.Gluco2::Solver::VarOrderLt", %"class.Gluco2::vec", %"class.Gluco2::vec" }
%"class.Gluco2::ClauseAllocator" = type { %"class.Gluco2::RegionAllocator.base", i8, [3 x i8] }
%"class.Gluco2::RegionAllocator.base" = type <{ ptr, i32, i32, i32 }>
%"class.Gluco2::bqueue" = type { %"class.Gluco2::vec.5", i32, i32, i64, i32, i32, i8, double, double }
%"class.Gluco2::vec.4" = type { ptr, i32, i32 }
%"class.Gluco2::vec.7" = type { ptr, i32, i32 }
%"class.Gluco2::vec.5" = type { ptr, i32, i32 }
%"class.Gluco2::Heap2" = type { %"struct.Gluco2::Solver::JustOrderLt2", %"class.Gluco2::vec.8", %"class.Gluco2::vec" }
%"class.Gluco2::vec.8" = type { ptr, i32, i32 }
%"class.Gluco2::vec" = type { ptr, i32, i32 }
%"class.Gluco2::Clause" = type { %struct.anon, [0 x %union.anon] }
%struct.anon = type { [12 x i8] }
%union.anon = type { %"struct.Gluco2::Lit" }
%"class.Gluco2::lbool" = type { i8 }
%"class.Gluco2::RegionAllocator" = type <{ ptr, i32, i32, i32, [4 x i8] }>

; Function Attrs: mustprogress uwtable
define linkonce_odr i8 @_ZNK6Gluco25lbooleoEb(ptr noundef nonnull align 1 dereferenceable(1) %0, i1 noundef zeroext %1) #1 comdat align 2 {
  %3 = alloca %"class.Gluco2::lbool", align 1
  %4 = alloca ptr, align 8
  %5 = alloca i8, align 1
  store ptr %0, ptr %4, align 8
  %6 = zext i1 %1 to i8
  store i8 %6, ptr %5, align 1
  %7 = load ptr, ptr %4, align 8
  %8 = getelementptr inbounds %"class.Gluco2::lbool", ptr %7, i32 0, i32 0
  %9 = load i8, ptr %8, align 1
  %10 = zext i8 %9 to i32
  %11 = load i8, ptr %5, align 1
  %12 = trunc i8 %11 to i1
  %13 = zext i1 %12 to i8
  %14 = zext i8 %13 to i32
  %15 = xor i32 %10, %14
  %16 = trunc i32 %15 to i8
  call void @_ZN6Gluco25lboolC2Eh(ptr noundef nonnull align 1 dereferenceable(1) %3, i8 noundef zeroext %16)
  %17 = getelementptr inbounds %"class.Gluco2::lbool", ptr %3, i32 0, i32 0
  %18 = load i8, ptr %17, align 1
  ret i8 %18
}

; Function Attrs: mustprogress nounwind uwtable
define linkonce_odr noundef zeroext i1 @_ZN6Gluco24signENS_3LitE(i32 %0) #2 comdat {
  %2 = alloca %"struct.Gluco2::Lit", align 4
  %3 = getelementptr inbounds %"struct.Gluco2::Lit", ptr %2, i32 0, i32 0
  store i32 %0, ptr %3, align 4
  %4 = getelementptr inbounds %"struct.Gluco2::Lit", ptr %2, i32 0, i32 0
  %5 = load i32, ptr %4, align 4
  %6 = and i32 %5, 1
  %7 = icmp ne i32 %6, 0
  ret i1 %7
}

; Function Attrs: mustprogress nounwind uwtable
define linkonce_odr noundef nonnull align 1 dereferenceable(1) ptr @_ZNK6Gluco23vecINS_5lboolEEixEi(ptr noundef nonnull align 8 dereferenceable(16) %0, i32 noundef %1) #2 comdat align 2 {
  %3 = alloca ptr, align 8
  %4 = alloca i32, align 4
  store ptr %0, ptr %3, align 8
  store i32 %1, ptr %4, align 4
  %5 = load ptr, ptr %3, align 8
  %6 = getelementptr inbounds %"class.Gluco2::vec.1", ptr %5, i32 0, i32 0
  %7 = load ptr, ptr %6, align 8
  %8 = load i32, ptr %4, align 4
  %9 = sext i32 %8 to i64
  %10 = getelementptr inbounds %"class.Gluco2::lbool", ptr %7, i64 %9
  ret ptr %10
}

; Function Attrs: mustprogress nounwind uwtable
define linkonce_odr noundef i32 @_ZN6Gluco23varENS_3LitE(i32 %0) #2 comdat {
  %2 = alloca %"struct.Gluco2::Lit", align 4
  %3 = getelementptr inbounds %"struct.Gluco2::Lit", ptr %2, i32 0, i32 0
  store i32 %0, ptr %3, align 4
  %4 = getelementptr inbounds %"struct.Gluco2::Lit", ptr %2, i32 0, i32 0
  %5 = load i32, ptr %4, align 4
  %6 = ashr i32 %5, 1
  ret i32 %6
}

; Function Attrs: mustprogress nounwind uwtable
define linkonce_odr noundef i32 @_ZNK6Gluco26Clause4sizeEv(ptr noundef nonnull align 4 dereferenceable(12) %0) #2 comdat align 2 {
  %2 = alloca ptr, align 8
  store ptr %0, ptr %2, align 8
  %3 = load ptr, ptr %2, align 8
  %4 = getelementptr inbounds %"class.Gluco2::Clause", ptr %3, i32 0, i32 0
  %5 = load i96, ptr %4, align 4
  %6 = lshr i96 %5, 32
  %7 = and i96 %6, 4294967295
  %8 = trunc i96 %7 to i32
  ret i32 %8
}

; Function Attrs: mustprogress nounwind uwtable
define linkonce_odr noundef zeroext i1 @_ZNK6Gluco25lbooleqES0_(ptr noundef nonnull align 1 dereferenceable(1) %0, i8 %1) #2 comdat align 2 {
  %3 = alloca %"class.Gluco2::lbool", align 1
  %4 = alloca ptr, align 8
  %5 = getelementptr inbounds %"class.Gluco2::lbool", ptr %3, i32 0, i32 0
  store i8 %1, ptr %5, align 1
  store ptr %0, ptr %4, align 8
  %6 = load ptr, ptr %4, align 8
  %7 = getelementptr inbounds %"class.Gluco2::lbool", ptr %3, i32 0, i32 0
  %8 = load i8, ptr %7, align 1
  %9 = zext i8 %8 to i32
  %10 = and i32 %9, 2
  %11 = getelementptr inbounds %"class.Gluco2::lbool", ptr %6, i32 0, i32 0
  %12 = load i8, ptr %11, align 1
  %13 = zext i8 %12 to i32
  %14 = and i32 %13, 2
  %15 = and i32 %10, %14
  %16 = getelementptr inbounds %"class.Gluco2::lbool", ptr %3, i32 0, i32 0
  %17 = load i8, ptr %16, align 1
  %18 = zext i8 %17 to i32
  %19 = and i32 %18, 2
  %20 = icmp ne i32 %19, 0
  %21 = xor i1 %20, true
  %22 = zext i1 %21 to i32
  %23 = getelementptr inbounds %"class.Gluco2::lbool", ptr %6, i32 0, i32 0
  %24 = load i8, ptr %23, align 1
  %25 = zext i8 %24 to i32
  %26 = getelementptr inbounds %"class.Gluco2::lbool", ptr %3, i32 0, i32 0
  %27 = load i8, ptr %26, align 1
  %28 = zext i8 %27 to i32
  %29 = icmp eq i32 %25, %28
  %30 = zext i1 %29 to i32
  %31 = and i32 %22, %30
  %32 = or i32 %15, %31
  %33 = icmp ne i32 %32, 0
  ret i1 %33
}

; Function Attrs: mustprogress nounwind uwtable
define linkonce_odr void @_ZN6Gluco25lboolC2Eh(ptr noundef nonnull align 1 dereferenceable(1) %0, i8 noundef zeroext %1) unnamed_addr #2 comdat align 2 {
  %3 = alloca ptr, align 8
  %4 = alloca i8, align 1
  store ptr %0, ptr %3, align 8
  store i8 %1, ptr %4, align 1
  %5 = load ptr, ptr %3, align 8
  %6 = getelementptr inbounds %"class.Gluco2::lbool", ptr %5, i32 0, i32 0
  %7 = load i8, ptr %4, align 1
  store i8 %7, ptr %6, align 1
  ret void
}

; Function Attrs: mustprogress uwtable
define linkonce_odr i8 @_ZNK6Gluco26Solver5valueENS_3LitE(ptr noundef nonnull align 8 dereferenceable(1416) %0, i32 %1) #1 comdat align 2 {
  %3 = alloca %"class.Gluco2::lbool", align 1
  %4 = alloca %"struct.Gluco2::Lit", align 4
  %5 = alloca ptr, align 8
  %6 = alloca %"struct.Gluco2::Lit", align 4
  %7 = alloca %"struct.Gluco2::Lit", align 4
  %8 = getelementptr inbounds %"struct.Gluco2::Lit", ptr %4, i32 0, i32 0
  store i32 %1, ptr %8, align 4
  store ptr %0, ptr %5, align 8
  %9 = load ptr, ptr %5, align 8
  %10 = getelementptr inbounds %"class.Gluco2::Solver", ptr %9, i32 0, i32 68
  call void @llvm.memcpy.p0.p0.i64(ptr align 4 %6, ptr align 4 %4, i64 4, i1 false)
  %11 = getelementptr inbounds %"struct.Gluco2::Lit", ptr %6, i32 0, i32 0
  %12 = load i32, ptr %11, align 4
  %13 = call noundef i32 @_ZN6Gluco23varENS_3LitE(i32 %12)
  %14 = call noundef nonnull align 1 dereferenceable(1) ptr @_ZNK6Gluco23vecINS_5lboolEEixEi(ptr noundef nonnull align 8 dereferenceable(16) %10, i32 noundef %13)
  call void @llvm.memcpy.p0.p0.i64(ptr align 4 %7, ptr align 4 %4, i64 4, i1 false)
  %15 = getelementptr inbounds %"struct.Gluco2::Lit", ptr %7, i32 0, i32 0
  %16 = load i32, ptr %15, align 4
  %17 = call noundef zeroext i1 @_ZN6Gluco24signENS_3LitE(i32 %16)
  %18 = call i8 @_ZNK6Gluco25lbooleoEb(ptr noundef nonnull align 1 dereferenceable(1) %14, i1 noundef zeroext %17)
  %19 = getelementptr inbounds %"class.Gluco2::lbool", ptr %3, i32 0, i32 0
  store i8 %18, ptr %19, align 1
  %20 = getelementptr inbounds %"class.Gluco2::lbool", ptr %3, i32 0, i32 0
  %21 = load i8, ptr %20, align 1
  ret i8 %21
}

; Function Attrs: mustprogress nounwind uwtable
define linkonce_odr i32 @_ZNK6Gluco26ClauseixEi(ptr noundef nonnull align 4 dereferenceable(12) %0, i32 noundef %1) #2 comdat align 2 {
  %3 = alloca %"struct.Gluco2::Lit", align 4
  %4 = alloca ptr, align 8
  %5 = alloca i32, align 4
  store ptr %0, ptr %4, align 8
  store i32 %1, ptr %5, align 4
  %6 = load ptr, ptr %4, align 8
  %7 = getelementptr inbounds %"class.Gluco2::Clause", ptr %6, i32 0, i32 1
  %8 = load i32, ptr %5, align 4
  %9 = sext i32 %8 to i64
  %10 = getelementptr inbounds [0 x %union.anon], ptr %7, i64 0, i64 %9
  call void @llvm.memcpy.p0.p0.i64(ptr align 4 %3, ptr align 4 %10, i64 4, i1 false)
  %11 = getelementptr inbounds %"struct.Gluco2::Lit", ptr %3, i32 0, i32 0
  %12 = load i32, ptr %11, align 4
  ret i32 %12
}

; Function Attrs: mustprogress nounwind uwtable
define linkonce_odr noundef nonnull align 4 dereferenceable(4) ptr @_ZN6Gluco215RegionAllocatorIjEixEj(ptr noundef nonnull align 8 dereferenceable(20) %0, i32 noundef %1) #2 comdat align 2 {
  %3 = alloca ptr, align 8
  %4 = alloca i32, align 4
  store ptr %0, ptr %3, align 8
  store i32 %1, ptr %4, align 4
  %5 = load ptr, ptr %3, align 8
  %6 = getelementptr inbounds %"class.Gluco2::RegionAllocator", ptr %5, i32 0, i32 0
  %7 = load ptr, ptr %6, align 8
  %8 = load i32, ptr %4, align 4
  %9 = zext i32 %8 to i64
  %10 = getelementptr inbounds i32, ptr %7, i64 %9
  ret ptr %10
}

; Function Attrs: mustprogress nounwind uwtable
define linkonce_odr void @_ZN6Gluco23vecIjE7shrink_Ei(ptr noundef nonnull align 8 dereferenceable(16) %0, i32 noundef %1) #2 comdat align 2 {
  %3 = alloca ptr, align 8
  %4 = alloca i32, align 4
  store ptr %0, ptr %3, align 8
  store i32 %1, ptr %4, align 4
  %5 = load ptr, ptr %3, align 8
  %6 = load i32, ptr %4, align 4
  %7 = getelementptr inbounds %"class.Gluco2::vec.5", ptr %5, i32 0, i32 1
  %8 = load i32, ptr %7, align 8
  %9 = sub nsw i32 %8, %6
  store i32 %9, ptr %7, align 8
  ret void
}

; Function Attrs: mustprogress uwtable
define noundef zeroext i1 @_ZNK6Gluco26Solver9satisfiedERKNS_6ClauseE(ptr noundef nonnull align 8 dereferenceable(1416) %0, ptr noundef nonnull align 4 dereferenceable(12) %1) #1 align 2 {
  %3 = alloca i1, align 1
  %4 = alloca ptr, align 8
  %5 = alloca ptr, align 8
  %6 = alloca %"class.Gluco2::lbool", align 1
  %7 = alloca %"struct.Gluco2::Lit", align 4
  %8 = alloca %"class.Gluco2::lbool", align 1
  %9 = alloca %"class.Gluco2::lbool", align 1
  %10 = alloca %"struct.Gluco2::Lit", align 4
  %11 = alloca %"class.Gluco2::lbool", align 1
  %12 = alloca i32, align 4
  %13 = alloca %"class.Gluco2::lbool", align 1
  %14 = alloca %"struct.Gluco2::Lit", align 4
  %15 = alloca %"class.Gluco2::lbool", align 1
  store ptr %0, ptr %4, align 8
  store ptr %1, ptr %5, align 8
  %16 = load ptr, ptr %4, align 8
  %17 = getelementptr inbounds %"class.Gluco2::Solver", ptr %16, i32 0, i32 101
  %18 = load i32, ptr %17, align 4
  %19 = icmp ne i32 %18, 0
  br i1 %19, label %20, label %44

20:                                               ; preds = %2
  %21 = load ptr, ptr %5, align 8
  %22 = call i32 @_ZNK6Gluco26ClauseixEi(ptr noundef nonnull align 4 dereferenceable(12) %21, i32 noundef 0)
  %23 = getelementptr inbounds %"struct.Gluco2::Lit", ptr %7, i32 0, i32 0
  store i32 %22, ptr %23, align 4
  %24 = getelementptr inbounds %"struct.Gluco2::Lit", ptr %7, i32 0, i32 0
  %25 = load i32, ptr %24, align 4
  %26 = call i8 @_ZNK6Gluco26Solver5valueENS_3LitE(ptr noundef nonnull align 8 dereferenceable(1416) %16, i32 %25)
  %27 = getelementptr inbounds %"class.Gluco2::lbool", ptr %6, i32 0, i32 0
  store i8 %26, ptr %27, align 1
  call void @_ZN6Gluco25lboolC2Eh(ptr noundef nonnull align 1 dereferenceable(1) %8, i8 noundef zeroext 0)
  %28 = getelementptr inbounds %"class.Gluco2::lbool", ptr %8, i32 0, i32 0
  %29 = load i8, ptr %28, align 1
  %30 = call noundef zeroext i1 @_ZNK6Gluco25lbooleqES0_(ptr noundef nonnull align 1 dereferenceable(1) %6, i8 %29)
  br i1 %30, label %42, label %31

31:                                               ; preds = %20
  %32 = load ptr, ptr %5, align 8
  %33 = call i32 @_ZNK6Gluco26ClauseixEi(ptr noundef nonnull align 4 dereferenceable(12) %32, i32 noundef 1)
  %34 = getelementptr inbounds %"struct.Gluco2::Lit", ptr %10, i32 0, i32 0
  store i32 %33, ptr %34, align 4
  %35 = getelementptr inbounds %"struct.Gluco2::Lit", ptr %10, i32 0, i32 0
  %36 = load i32, ptr %35, align 4
  %37 = call i8 @_ZNK6Gluco26Solver5valueENS_3LitE(ptr noundef nonnull align 8 dereferenceable(1416) %16, i32 %36)
  %38 = getelementptr inbounds %"class.Gluco2::lbool", ptr %9, i32 0, i32 0
  store i8 %37, ptr %38, align 1
  call void @_ZN6Gluco25lboolC2Eh(ptr noundef nonnull align 1 dereferenceable(1) %11, i8 noundef zeroext 0)
  %39 = getelementptr inbounds %"class.Gluco2::lbool", ptr %11, i32 0, i32 0
  %40 = load i8, ptr %39, align 1
  %41 = call noundef zeroext i1 @_ZNK6Gluco25lbooleqES0_(ptr noundef nonnull align 1 dereferenceable(1) %9, i8 %40)
  br label %42

42:                                               ; preds = %31, %20
  %43 = phi i1 [ true, %20 ], [ %41, %31 ]
  store i1 %43, ptr %3, align 1
  br label %68

44:                                               ; preds = %2
  store i32 0, ptr %12, align 4
  br label %45

45:                                               ; preds = %64, %44
  %46 = load i32, ptr %12, align 4
  %47 = load ptr, ptr %5, align 8
  %48 = call noundef i32 @_ZNK6Gluco26Clause4sizeEv(ptr noundef nonnull align 4 dereferenceable(12) %47)
  %49 = icmp slt i32 %46, %48
  br i1 %49, label %50, label %67

50:                                               ; preds = %45
  %51 = load ptr, ptr %5, align 8
  %52 = load i32, ptr %12, align 4
  %53 = call i32 @_ZNK6Gluco26ClauseixEi(ptr noundef nonnull align 4 dereferenceable(12) %51, i32 noundef %52)
  %54 = getelementptr inbounds %"struct.Gluco2::Lit", ptr %14, i32 0, i32 0
  store i32 %53, ptr %54, align 4
  %55 = getelementptr inbounds %"struct.Gluco2::Lit", ptr %14, i32 0, i32 0
  %56 = load i32, ptr %55, align 4
  %57 = call i8 @_ZNK6Gluco26Solver5valueENS_3LitE(ptr noundef nonnull align 8 dereferenceable(1416) %16, i32 %56)
  %58 = getelementptr inbounds %"class.Gluco2::lbool", ptr %13, i32 0, i32 0
  store i8 %57, ptr %58, align 1
  call void @_ZN6Gluco25lboolC2Eh(ptr noundef nonnull align 1 dereferenceable(1) %15, i8 noundef zeroext 0)
  %59 = getelementptr inbounds %"class.Gluco2::lbool", ptr %15, i32 0, i32 0
  %60 = load i8, ptr %59, align 1
  %61 = call noundef zeroext i1 @_ZNK6Gluco25lbooleqES0_(ptr noundef nonnull align 1 dereferenceable(1) %13, i8 %60)
  br i1 %61, label %62, label %63

62:                                               ; preds = %50
  store i1 true, ptr %3, align 1
  br label %68

63:                                               ; preds = %50
  br label %64

64:                                               ; preds = %63
  %65 = load i32, ptr %12, align 4
  %66 = add nsw i32 %65, 1
  store i32 %66, ptr %12, align 4
  br label %45, !llvm.loop !23

67:                                               ; preds = %45
  store i1 false, ptr %3, align 1
  br label %68

68:                                               ; preds = %67, %62, %42
  %69 = load i1, ptr %3, align 1
  ret i1 %69
}

; Function Attrs: mustprogress uwtable
define linkonce_odr noundef nonnull align 4 dereferenceable(12) ptr @_ZN6Gluco215ClauseAllocatorixEj(ptr noundef nonnull align 8 dereferenceable(21) %0, i32 noundef %1) #1 comdat align 2 {
  %3 = alloca ptr, align 8
  %4 = alloca i32, align 4
  store ptr %0, ptr %3, align 8
  store i32 %1, ptr %4, align 4
  %5 = load ptr, ptr %3, align 8
  %6 = load i32, ptr %4, align 4
  %7 = call noundef nonnull align 4 dereferenceable(4) ptr @_ZN6Gluco215RegionAllocatorIjEixEj(ptr noundef nonnull align 8 dereferenceable(20) %5, i32 noundef %6)
  ret ptr %7
}

; Function Attrs: mustprogress nounwind uwtable
define linkonce_odr noundef nonnull align 4 dereferenceable(4) ptr @_ZN6Gluco23vecIjEixEi(ptr noundef nonnull align 8 dereferenceable(16) %0, i32 noundef %1) #2 comdat align 2 {
  %3 = alloca ptr, align 8
  %4 = alloca i32, align 4
  store ptr %0, ptr %3, align 8
  store i32 %1, ptr %4, align 4
  %5 = load ptr, ptr %3, align 8
  %6 = getelementptr inbounds %"class.Gluco2::vec.5", ptr %5, i32 0, i32 0
  %7 = load ptr, ptr %6, align 8
  %8 = load i32, ptr %4, align 4
  %9 = sext i32 %8 to i64
  %10 = getelementptr inbounds i32, ptr %7, i64 %9
  ret ptr %10
}

; Function Attrs: mustprogress nounwind uwtable
define linkonce_odr noundef i32 @_ZNK6Gluco23vecIjE4sizeEv(ptr noundef nonnull align 8 dereferenceable(16) %0) #2 comdat align 2 {
  %2 = alloca ptr, align 8
  store ptr %0, ptr %2, align 8
  %3 = load ptr, ptr %2, align 8
  %4 = getelementptr inbounds %"class.Gluco2::vec.5", ptr %3, i32 0, i32 1
  %5 = load i32, ptr %4, align 8
  ret i32 %5
}

; Function Attrs: mustprogress uwtable
define void @_ZN6Gluco26Solver15removeSatisfiedERNS_3vecIjEE(ptr noundef nonnull align 8 dereferenceable(1416) %0, ptr noundef nonnull align 8 dereferenceable(16) %1) #1 align 2 {
  %3 = alloca ptr, align 8
  %4 = alloca ptr, align 8
  %5 = alloca i32, align 4
  %6 = alloca i32, align 4
  %7 = alloca ptr, align 8
  store ptr %0, ptr %3, align 8
  store ptr %1, ptr %4, align 8
  %8 = load ptr, ptr %3, align 8
  store i32 0, ptr %6, align 4
  store i32 0, ptr %5, align 4
  br label %9

9:                                                ; preds = %38, %2
  %10 = load i32, ptr %5, align 4
  %11 = load ptr, ptr %4, align 8
  %12 = call noundef i32 @_ZNK6Gluco23vecIjE4sizeEv(ptr noundef nonnull align 8 dereferenceable(16) %11)
  %13 = icmp slt i32 %10, %12
  br i1 %13, label %14, label %41

14:                                               ; preds = %9
  %15 = getelementptr inbounds %"class.Gluco2::Solver", ptr %8, i32 0, i32 84
  %16 = load ptr, ptr %4, align 8
  %17 = load i32, ptr %5, align 4
  %18 = call noundef nonnull align 4 dereferenceable(4) ptr @_ZN6Gluco23vecIjEixEi(ptr noundef nonnull align 8 dereferenceable(16) %16, i32 noundef %17)
  %19 = load i32, ptr %18, align 4
  %20 = call noundef nonnull align 4 dereferenceable(12) ptr @_ZN6Gluco215ClauseAllocatorixEj(ptr noundef nonnull align 8 dereferenceable(21) %15, i32 noundef %19)
  store ptr %20, ptr %7, align 8
  %21 = load ptr, ptr %7, align 8
  %22 = call noundef zeroext i1 @_ZNK6Gluco26Solver9satisfiedERKNS_6ClauseE(ptr noundef nonnull align 8 dereferenceable(1416) %8, ptr noundef nonnull align 4 dereferenceable(12) %21)
  br i1 %22, label %23, label %28

23:                                               ; preds = %14
  %24 = load ptr, ptr %4, align 8
  %25 = load i32, ptr %5, align 4
  %26 = call noundef nonnull align 4 dereferenceable(4) ptr @_ZN6Gluco23vecIjEixEi(ptr noundef nonnull align 8 dereferenceable(16) %24, i32 noundef %25)
  %27 = load i32, ptr %26, align 4
  call void @_ZN6Gluco26Solver12removeClauseEj(ptr noundef nonnull align 8 dereferenceable(1416) %8, i32 noundef %27)
  br label %37

28:                                               ; preds = %14
  %29 = load ptr, ptr %4, align 8
  %30 = load i32, ptr %5, align 4
  %31 = call noundef nonnull align 4 dereferenceable(4) ptr @_ZN6Gluco23vecIjEixEi(ptr noundef nonnull align 8 dereferenceable(16) %29, i32 noundef %30)
  %32 = load i32, ptr %31, align 4
  %33 = load ptr, ptr %4, align 8
  %34 = load i32, ptr %6, align 4
  %35 = add nsw i32 %34, 1
  store i32 %35, ptr %6, align 4
  %36 = call noundef nonnull align 4 dereferenceable(4) ptr @_ZN6Gluco23vecIjEixEi(ptr noundef nonnull align 8 dereferenceable(16) %33, i32 noundef %34)
  store i32 %32, ptr %36, align 4
  br label %37

37:                                               ; preds = %28, %23
  br label %38

38:                                               ; preds = %37
  %39 = load i32, ptr %5, align 4
  %40 = add nsw i32 %39, 1
  store i32 %40, ptr %5, align 4
  br label %9, !llvm.loop !64

41:                                               ; preds = %9
  %42 = load ptr, ptr %4, align 8
  %43 = load i32, ptr %5, align 4
  %44 = load i32, ptr %6, align 4
  %45 = sub nsw i32 %43, %44
  call void @_ZN6Gluco23vecIjE7shrink_Ei(ptr noundef nonnull align 8 dereferenceable(16) %42, i32 noundef %45)
  ret void
}